target datalayout = "e-m:e-p270:32:32-p271:32:32-p272:64:64-i64:64-i128:128-f80:128-n8:16:32:64-S128"
target triple = "x86_64-pc-linux-gnu"

%"class.mitsuba::MemoryStream" = type <{ %"class.mitsuba::Stream", i64, i64, i64, i8, [7 x i8], ptr, i8, [7 x i8] }>
%"class.mitsuba::Stream" = type { %"class.mitsuba::Object.base", i32 }
%"class.mitsuba::Object.base" = type <{ ptr, %"struct.std::__1::atomic" }>
%"struct.std::__1::atomic" = type { %"struct.std::__1::__atomic_base" }
%"struct.std::__1::__atomic_base" = type { %"struct.std::__1::__atomic_base.0" }
%"struct.std::__1::__atomic_base.0" = type { %"struct.std::__1::__cxx_atomic_impl" }
%"struct.std::__1::__cxx_atomic_impl" = type { %"struct.std::__1::__cxx_atomic_base_impl" }
%"struct.std::__1::__cxx_atomic_base_impl" = type { i32 }

; Function Attrs: mustprogress uwtable
define void @_ZN7mitsuba12MemoryStreamC2EPvm(ptr noundef nonnull align 8 dereferenceable(57) %0, ptr noundef %1, i64 noundef %2) unnamed_addr #0 align 2 {
  %4 = alloca ptr, align 8
  %5 = alloca ptr, align 8
  %6 = alloca i64, align 8
  store ptr %0, ptr %4, align 8
  store ptr %1, ptr %5, align 8
  store i64 %2, ptr %6, align 8
  %7 = load ptr, ptr %4, align 8
  call void @_ZN7mitsuba6StreamC2Ev(ptr noundef nonnull align 8 dereferenceable(16) %7)
  store ptr getelementptr inbounds inrange(-16, 176) ({ [24 x ptr] }, ptr @_ZTVN7mitsuba12MemoryStreamE, i32 0, i32 0, i32 2), ptr %7, align 8
  %8 = getelementptr inbounds %"class.mitsuba::MemoryStream", ptr %7, i32 0, i32 1
  %9 = load i64, ptr %6, align 8
  store i64 %9, ptr %8, align 8
  %10 = getelementptr inbounds %"class.mitsuba::MemoryStream", ptr %7, i32 0, i32 2
  %11 = load i64, ptr %6, align 8
  store i64 %11, ptr %10, align 8
  %12 = getelementptr inbounds %"class.mitsuba::MemoryStream", ptr %7, i32 0, i32 3
  store i64 0, ptr %12, align 8
  %13 = getelementptr inbounds %"class.mitsuba::MemoryStream", ptr %7, i32 0, i32 4
  store i8 0, ptr %13, align 8
  %14 = getelementptr inbounds %"class.mitsuba::MemoryStream", ptr %7, i32 0, i32 6
  %15 = load ptr, ptr %5, align 8
  store ptr %15, ptr %14, align 8
  %16 = getelementptr inbounds %"class.mitsuba::MemoryStream", ptr %7, i32 0, i32 7
  store i8 0, ptr %16, align 8
  ret void
}