; Function Attrs: mustprogress uwtable
define void @_ZN7mitsuba12MemoryStreamC2EPvm(ptr noundef nonnull align 8 dereferenceable(57) %0, ptr noundef %1, i64 noundef %2) unnamed_addr #0 align 2 {
  tail call void @_ZN7mitsuba6StreamC2Ev(ptr noundef nonnull align 8 dereferenceable(16) %0)
  store ptr getelementptr inbounds inrange(-16, 176) ({ [24 x ptr] }, ptr @_ZTVN7mitsuba12MemoryStreamE, i64 0, i32 0, i64 2), ptr %0, align 8
  %4 = getelementptr inbounds i8, ptr %0, i64 16
  store i64 %2, ptr %4, align 8
  %5 = getelementptr inbounds i8, ptr %0, i64 24
  store i64 %2, ptr %5, align 8
  %6 = getelementptr inbounds i8, ptr %0, i64 32
  store i64 0, ptr %6, align 8
  %7 = getelementptr inbounds i8, ptr %0, i64 40
  store i8 0, ptr %7, align 8
  %8 = getelementptr inbounds i8, ptr %0, i64 48
  store ptr %1, ptr %8, align 8
  %9 = getelementptr inbounds i8, ptr %0, i64 56
  store i8 0, ptr %9, align 8
  ret void
}